target datalayout = "e-m:e-p270:32:32-p271:32:32-p272:64:64-i64:64-i128:128-f80:128-n8:16:32:64-S128"
target triple = "x86_64-pc-linux-gnu"

%"class.std::basic_string_view" = type { i64, ptr }

; Function Attrs: mustprogress nounwind uwtable
define linkonce_odr dso_local noundef i32 @_ZNSt11char_traitsIcE7compareEPKcS2_m(ptr noundef %0, ptr noundef %1, i64 noundef %2) #4 comdat align 2 {
  %4 = alloca i32, align 4
  %5 = alloca ptr, align 8
  %6 = alloca ptr, align 8
  %7 = alloca i64, align 8
  store ptr %0, ptr %5, align 8, !tbaa !33
  store ptr %1, ptr %6, align 8, !tbaa !33
  store i64 %2, ptr %7, align 8, !tbaa !45
  %8 = load i64, ptr %7, align 8, !tbaa !45
  %9 = icmp eq i64 %8, 0
  br i1 %9, label %10, label %11

10:                                               ; preds = %3
  store i32 0, ptr %4, align 4
  br label %16

11:                                               ; preds = %3
  %12 = load ptr, ptr %5, align 8, !tbaa !33
  %13 = load ptr, ptr %6, align 8, !tbaa !33
  %14 = load i64, ptr %7, align 8, !tbaa !45
  %15 = call i32 @memcmp(ptr noundef %12, ptr noundef %13, i64 noundef %14) #3
  store i32 %15, ptr %4, align 4
  br label %16

16:                                               ; preds = %11, %10
  %17 = load i32, ptr %4, align 4
  ret i32 %17
}

; Function Attrs: mustprogress nounwind uwtable
define linkonce_odr dso_local noundef ptr @_ZNSt11char_traitsIcE4findEPKcmRS1_(ptr noundef %0, i64 noundef %1, ptr noundef nonnull align 1 dereferenceable(1) %2) #4 comdat align 2 {
  %4 = alloca ptr, align 8
  %5 = alloca ptr, align 8
  %6 = alloca i64, align 8
  %7 = alloca ptr, align 8
  store ptr %0, ptr %5, align 8, !tbaa !33
  store i64 %1, ptr %6, align 8, !tbaa !45
  store ptr %2, ptr %7, align 8, !tbaa !33
  %8 = load i64, ptr %6, align 8, !tbaa !45
  %9 = icmp eq i64 %8, 0
  br i1 %9, label %10, label %11

10:                                               ; preds = %3
  store ptr null, ptr %4, align 8
  br label %18

11:                                               ; preds = %3
  %12 = load ptr, ptr %5, align 8, !tbaa !33
  %13 = load ptr, ptr %7, align 8, !tbaa !33
  %14 = load i8, ptr %13, align 1, !tbaa !28
  %15 = sext i8 %14 to i32
  %16 = load i64, ptr %6, align 8, !tbaa !45
  %17 = call ptr @memchr(ptr noundef %12, i32 noundef %15, i64 noundef %16) #3
  store ptr %17, ptr %4, align 8
  br label %18

18:                                               ; preds = %11, %10
  %19 = load ptr, ptr %4, align 8
  ret ptr %19
}

; Function Attrs: mustprogress nounwind uwtable
define linkonce_odr dso_local noundef i64 @_ZNKSt17basic_string_viewIcSt11char_traitsIcEE4findEPKcmm(ptr noundef nonnull align 8 dereferenceable(16) %0, ptr noundef %1, i64 noundef %2, i64 noundef %3) #4 comdat align 2 {
  %5 = alloca i64, align 8
  %6 = alloca ptr, align 8
  %7 = alloca ptr, align 8
  %8 = alloca i64, align 8
  %9 = alloca i64, align 8
  %10 = alloca i8, align 1
  %11 = alloca ptr, align 8
  %12 = alloca ptr, align 8
  %13 = alloca i64, align 8
  %14 = alloca i32, align 4
  store ptr %0, ptr %6, align 8, !tbaa !52
  store ptr %1, ptr %7, align 8, !tbaa !33
  store i64 %2, ptr %8, align 8, !tbaa !45
  store i64 %3, ptr %9, align 8, !tbaa !45
  %15 = load ptr, ptr %6, align 8
  %16 = load i64, ptr %9, align 8, !tbaa !45
  %17 = icmp eq i64 %16, 0
  br i1 %17, label %18, label %28

18:                                               ; preds = %4
  %19 = load i64, ptr %8, align 8, !tbaa !45
  %20 = getelementptr inbounds nuw %"class.std::basic_string_view", ptr %15, i32 0, i32 0
  %21 = load i64, ptr %20, align 8, !tbaa !54
  %22 = icmp ule i64 %19, %21
  br i1 %22, label %23, label %25

23:                                               ; preds = %18
  %24 = load i64, ptr %8, align 8, !tbaa !45
  br label %26

25:                                               ; preds = %18
  br label %26

26:                                               ; preds = %25, %23
  %27 = phi i64 [ %24, %23 ], [ -1, %25 ]
  store i64 %27, ptr %5, align 8
  br label %87

28:                                               ; preds = %4
  %29 = load i64, ptr %8, align 8, !tbaa !45
  %30 = getelementptr inbounds nuw %"class.std::basic_string_view", ptr %15, i32 0, i32 0
  %31 = load i64, ptr %30, align 8, !tbaa !54
  %32 = icmp uge i64 %29, %31
  br i1 %32, label %33, label %34

33:                                               ; preds = %28
  store i64 -1, ptr %5, align 8
  br label %87

34:                                               ; preds = %28
  call void @llvm.lifetime.start.p0(i64 1, ptr %10) #3
  %35 = load ptr, ptr %7, align 8, !tbaa !33
  %36 = getelementptr inbounds i8, ptr %35, i64 0
  %37 = load i8, ptr %36, align 1, !tbaa !28
  store i8 %37, ptr %10, align 1, !tbaa !28
  call void @llvm.lifetime.start.p0(i64 8, ptr %11) #3
  %38 = getelementptr inbounds nuw %"class.std::basic_string_view", ptr %15, i32 0, i32 1
  %39 = load ptr, ptr %38, align 8, !tbaa !56
  %40 = load i64, ptr %8, align 8, !tbaa !45
  %41 = getelementptr inbounds nuw i8, ptr %39, i64 %40
  store ptr %41, ptr %11, align 8, !tbaa !33
  call void @llvm.lifetime.start.p0(i64 8, ptr %12) #3
  %42 = getelementptr inbounds nuw %"class.std::basic_string_view", ptr %15, i32 0, i32 1
  %43 = load ptr, ptr %42, align 8, !tbaa !56
  %44 = getelementptr inbounds nuw %"class.std::basic_string_view", ptr %15, i32 0, i32 0
  %45 = load i64, ptr %44, align 8, !tbaa !54
  %46 = getelementptr inbounds nuw i8, ptr %43, i64 %45
  store ptr %46, ptr %12, align 8, !tbaa !33
  call void @llvm.lifetime.start.p0(i64 8, ptr %13) #3
  %47 = getelementptr inbounds nuw %"class.std::basic_string_view", ptr %15, i32 0, i32 0
  %48 = load i64, ptr %47, align 8, !tbaa !54
  %49 = load i64, ptr %8, align 8, !tbaa !45
  %50 = sub i64 %48, %49
  store i64 %50, ptr %13, align 8, !tbaa !45
  br label %51

51:                                               ; preds = %78, %34
  %52 = load i64, ptr %13, align 8, !tbaa !45
  %53 = load i64, ptr %9, align 8, !tbaa !45
  %54 = icmp uge i64 %52, %53
  br i1 %54, label %55, label %85

55:                                               ; preds = %51
  %56 = load ptr, ptr %11, align 8, !tbaa !33
  %57 = load i64, ptr %13, align 8, !tbaa !45
  %58 = load i64, ptr %9, align 8, !tbaa !45
  %59 = sub i64 %57, %58
  %60 = add i64 %59, 1
  %61 = call noundef ptr @_ZNSt11char_traitsIcE4findEPKcmRS1_(ptr noundef %56, i64 noundef %60, ptr noundef nonnull align 1 dereferenceable(1) %10)
  store ptr %61, ptr %11, align 8, !tbaa !33
  %62 = load ptr, ptr %11, align 8, !tbaa !33
  %63 = icmp ne ptr %62, null
  br i1 %63, label %65, label %64

64:                                               ; preds = %55
  store i64 -1, ptr %5, align 8
  store i32 1, ptr %14, align 4
  br label %86

65:                                               ; preds = %55
  %66 = load ptr, ptr %11, align 8, !tbaa !33
  %67 = load ptr, ptr %7, align 8, !tbaa !33
  %68 = load i64, ptr %9, align 8, !tbaa !45
  %69 = call noundef i32 @_ZNSt11char_traitsIcE7compareEPKcS2_m(ptr noundef %66, ptr noundef %67, i64 noundef %68)
  %70 = icmp eq i32 %69, 0
  br i1 %70, label %71, label %78

71:                                               ; preds = %65
  %72 = load ptr, ptr %11, align 8, !tbaa !33
  %73 = getelementptr inbounds nuw %"class.std::basic_string_view", ptr %15, i32 0, i32 1
  %74 = load ptr, ptr %73, align 8, !tbaa !56
  %75 = ptrtoint ptr %72 to i64
  %76 = ptrtoint ptr %74 to i64
  %77 = sub i64 %75, %76
  store i64 %77, ptr %5, align 8
  store i32 1, ptr %14, align 4
  br label %86

78:                                               ; preds = %65
  %79 = load ptr, ptr %12, align 8, !tbaa !33
  %80 = load ptr, ptr %11, align 8, !tbaa !33
  %81 = getelementptr inbounds nuw i8, ptr %80, i32 1
  store ptr %81, ptr %11, align 8, !tbaa !33
  %82 = ptrtoint ptr %79 to i64
  %83 = ptrtoint ptr %81 to i64
  %84 = sub i64 %82, %83
  store i64 %84, ptr %13, align 8, !tbaa !45
  br label %51, !llvm.loop !634

85:                                               ; preds = %51
  store i64 -1, ptr %5, align 8
  store i32 1, ptr %14, align 4
  br label %86

86:                                               ; preds = %85, %71, %64
  call void @llvm.lifetime.end.p0(i64 8, ptr %13) #3
  call void @llvm.lifetime.end.p0(i64 8, ptr %12) #3
  call void @llvm.lifetime.end.p0(i64 8, ptr %11) #3
  call void @llvm.lifetime.end.p0(i64 1, ptr %10) #3
  br label %87

87:                                               ; preds = %86, %33, %26
  %88 = load i64, ptr %5, align 8
  ret i64 %88
}

; Function Attrs: mustprogress nounwind uwtable
define linkonce_odr dso_local noundef nonnull align 1 dereferenceable(1) ptr @_ZNKSt17basic_string_viewIcSt11char_traitsIcEEixEm(ptr noundef nonnull align 8 dereferenceable(16) %0, i64 noundef %1) #4 comdat align 2 {
  %3 = alloca ptr, align 8
  %4 = alloca i64, align 8
  store ptr %0, ptr %3, align 8, !tbaa !52
  store i64 %1, ptr %4, align 8, !tbaa !45
  %5 = load ptr, ptr %3, align 8
  br label %6

6:                                                ; preds = %2
  br label %7

7:                                                ; preds = %6
  br label %8

8:                                                ; preds = %7
  %9 = getelementptr inbounds nuw %"class.std::basic_string_view", ptr %5, i32 0, i32 1
  %10 = load ptr, ptr %9, align 8, !tbaa !56
  %11 = load i64, ptr %4, align 8, !tbaa !45
  %12 = getelementptr inbounds nuw i8, ptr %10, i64 %11
  ret ptr %12
}

; Function Attrs: mustprogress nounwind uwtable
define linkonce_odr dso_local noundef i64 @_ZNKSt17basic_string_viewIcSt11char_traitsIcEE4findES2_m(ptr noundef nonnull align 8 dereferenceable(16) %0, i64 %1, ptr %2, i64 noundef %3) #4 comdat align 2 {
  %5 = alloca %"class.std::basic_string_view", align 8
  %6 = alloca ptr, align 8
  %7 = alloca i64, align 8
  %8 = getelementptr inbounds nuw { i64, ptr }, ptr %5, i32 0, i32 0
  store i64 %1, ptr %8, align 8
  %9 = getelementptr inbounds nuw { i64, ptr }, ptr %5, i32 0, i32 1
  store ptr %2, ptr %9, align 8
  store ptr %0, ptr %6, align 8, !tbaa !52
  store i64 %3, ptr %7, align 8, !tbaa !45
  %10 = load ptr, ptr %6, align 8
  %11 = getelementptr inbounds nuw %"class.std::basic_string_view", ptr %5, i32 0, i32 1
  %12 = load ptr, ptr %11, align 8, !tbaa !56
  %13 = load i64, ptr %7, align 8, !tbaa !45
  %14 = getelementptr inbounds nuw %"class.std::basic_string_view", ptr %5, i32 0, i32 0
  %15 = load i64, ptr %14, align 8, !tbaa !54
  %16 = call noundef i64 @_ZNKSt17basic_string_viewIcSt11char_traitsIcEE4findEPKcmm(ptr noundef nonnull align 8 dereferenceable(16) %10, ptr noundef %12, i64 noundef %13, i64 noundef %15) #3
  ret i64 %16
}

; Function Attrs: mustprogress nounwind uwtable
define linkonce_odr dso_local noundef i64 @_ZNKSt17basic_string_viewIcSt11char_traitsIcEE4sizeEv(ptr noundef nonnull align 8 dereferenceable(16) %0) #4 comdat align 2 {
  %2 = alloca ptr, align 8
  store ptr %0, ptr %2, align 8, !tbaa !52
  %3 = load ptr, ptr %2, align 8
  %4 = getelementptr inbounds nuw %"class.std::basic_string_view", ptr %3, i32 0, i32 0
  %5 = load i64, ptr %4, align 8, !tbaa !54
  ret i64 %5
}

; Function Attrs: mustprogress nounwind uwtable
define internal noundef i64 @_ZL22cmSystemToolsFindRPathRKSt17basic_string_viewIcSt11char_traitsIcEES4_(ptr noundef nonnull align 8 dereferenceable(16) %0, ptr noundef nonnull align 8 dereferenceable(16) %1) #4 {
  %3 = alloca i64, align 8
  %4 = alloca ptr, align 8
  %5 = alloca ptr, align 8
  %6 = alloca i64, align 8
  %7 = alloca i64, align 8
  %8 = alloca %"class.std::basic_string_view", align 8
  %9 = alloca i32, align 4
  %10 = alloca i64, align 8
  store ptr %0, ptr %4, align 8, !tbaa !52
  store ptr %1, ptr %5, align 8, !tbaa !52
  call void @llvm.lifetime.start.p0(i64 8, ptr %6) #3
  store i64 0, ptr %6, align 8, !tbaa !45
  br label %11

11:                                               ; preds = %64, %2
  %12 = load i64, ptr %6, align 8, !tbaa !45
  %13 = load ptr, ptr %4, align 8, !tbaa !52
  %14 = call noundef i64 @_ZNKSt17basic_string_viewIcSt11char_traitsIcEE4sizeEv(ptr noundef nonnull align 8 dereferenceable(16) %13) #3
  %15 = icmp ult i64 %12, %14
  br i1 %15, label %16, label %66

16:                                               ; preds = %11
  call void @llvm.lifetime.start.p0(i64 8, ptr %7) #3
  %17 = load ptr, ptr %4, align 8, !tbaa !52
  %18 = load ptr, ptr %5, align 8, !tbaa !52
  call void @llvm.memcpy.p0.p0.i64(ptr align 8 %8, ptr align 8 %18, i64 16, i1 false), !tbaa.struct !60
  %19 = load i64, ptr %6, align 8, !tbaa !45
  %20 = getelementptr inbounds nuw { i64, ptr }, ptr %8, i32 0, i32 0
  %21 = load i64, ptr %20, align 8
  %22 = getelementptr inbounds nuw { i64, ptr }, ptr %8, i32 0, i32 1
  %23 = load ptr, ptr %22, align 8
  %24 = call noundef i64 @_ZNKSt17basic_string_viewIcSt11char_traitsIcEE4findES2_m(ptr noundef nonnull align 8 dereferenceable(16) %17, i64 %21, ptr %23, i64 noundef %19) #3
  store i64 %24, ptr %7, align 8, !tbaa !45
  %25 = load i64, ptr %7, align 8, !tbaa !45
  %26 = icmp eq i64 %25, -1
  br i1 %26, label %27, label %28

27:                                               ; preds = %16
  store i64 -1, ptr %3, align 8
  store i32 1, ptr %9, align 4
  br label %64

28:                                               ; preds = %16
  %29 = load i64, ptr %7, align 8, !tbaa !45
  %30 = icmp ugt i64 %29, 0
  br i1 %30, label %31, label %42

31:                                               ; preds = %28
  %32 = load ptr, ptr %4, align 8, !tbaa !52
  %33 = load i64, ptr %7, align 8, !tbaa !45
  %34 = sub i64 %33, 1
  %35 = call noundef nonnull align 1 dereferenceable(1) ptr @_ZNKSt17basic_string_viewIcSt11char_traitsIcEEixEm(ptr noundef nonnull align 8 dereferenceable(16) %32, i64 noundef %34) #3
  %36 = load i8, ptr %35, align 1, !tbaa !28
  %37 = sext i8 %36 to i32
  %38 = icmp ne i32 %37, 58
  br i1 %38, label %39, label %42

39:                                               ; preds = %31
  %40 = load i64, ptr %7, align 8, !tbaa !45
  %41 = add i64 %40, 1
  store i64 %41, ptr %6, align 8, !tbaa !45
  store i32 2, ptr %9, align 4
  br label %64, !llvm.loop !339

42:                                               ; preds = %31, %28
  call void @llvm.lifetime.start.p0(i64 8, ptr %10) #3
  %43 = load i64, ptr %7, align 8, !tbaa !45
  %44 = load ptr, ptr %5, align 8, !tbaa !52
  %45 = call noundef i64 @_ZNKSt17basic_string_viewIcSt11char_traitsIcEE4sizeEv(ptr noundef nonnull align 8 dereferenceable(16) %44) #3
  %46 = add i64 %43, %45
  store i64 %46, ptr %10, align 8, !tbaa !45
  %47 = load i64, ptr %10, align 8, !tbaa !45
  %48 = load ptr, ptr %4, align 8, !tbaa !52
  %49 = call noundef i64 @_ZNKSt17basic_string_viewIcSt11char_traitsIcEE4sizeEv(ptr noundef nonnull align 8 dereferenceable(16) %48) #3
  %50 = icmp ult i64 %47, %49
  br i1 %50, label %51, label %61

51:                                               ; preds = %42
  %52 = load ptr, ptr %4, align 8, !tbaa !52
  %53 = load i64, ptr %10, align 8, !tbaa !45
  %54 = call noundef nonnull align 1 dereferenceable(1) ptr @_ZNKSt17basic_string_viewIcSt11char_traitsIcEEixEm(ptr noundef nonnull align 8 dereferenceable(16) %52, i64 noundef %53) #3
  %55 = load i8, ptr %54, align 1, !tbaa !28
  %56 = sext i8 %55 to i32
  %57 = icmp ne i32 %56, 58
  br i1 %57, label %58, label %61

58:                                               ; preds = %51
  %59 = load i64, ptr %7, align 8, !tbaa !45
  %60 = add i64 %59, 1
  store i64 %60, ptr %6, align 8, !tbaa !45
  store i32 2, ptr %9, align 4
  br label %63, !llvm.loop !339

61:                                               ; preds = %51, %42
  %62 = load i64, ptr %7, align 8, !tbaa !45
  store i64 %62, ptr %3, align 8
  store i32 1, ptr %9, align 4
  br label %63

63:                                               ; preds = %61, %58
  call void @llvm.lifetime.end.p0(i64 8, ptr %10) #3
  br label %64

64:                                               ; preds = %63, %39, %27
  call void @llvm.lifetime.end.p0(i64 8, ptr %7) #3
  %65 = load i32, ptr %9, align 4
  switch i32 %65, label %67 [
    i32 2, label %11
  ]

66:                                               ; preds = %11
  store i64 -1, ptr %3, align 8
  store i32 1, ptr %9, align 4
  br label %67

67:                                               ; preds = %66, %64
  call void @llvm.lifetime.end.p0(i64 8, ptr %6) #3
  %68 = load i64, ptr %3, align 8
  ret i64 %68
}