; Function Attrs: mustprogress nofree nounwind willreturn memory(read, inaccessiblemem: none) uwtable
define internal fastcc noundef i64 @_ZL22cmSystemToolsFindRPathRKSt17basic_string_viewIcSt11char_traitsIcEES4_(i64 %.0.val, ptr %.8.val, i64 %.0.val1, ptr readonly captures(none) %.8.val3) unnamed_addr #20 {
  %invariant.gep = getelementptr i8, ptr %.8.val, i64 -1
  %.not = icmp eq i64 %.0.val, 0
  br i1 %.not, label %.thread, label %.lr.ph

.lr.ph:                                           ; preds = %0
  %1 = icmp eq i64 %.0.val1, 0
  %2 = getelementptr inbounds nuw i8, ptr %.8.val, i64 %.0.val
  %3 = ptrtoint ptr %2 to i64
  %4 = ptrtoint ptr %.8.val to i64
  br i1 %1, label %_ZNKSt17basic_string_viewIcSt11char_traitsIcEE4findES2_m.exit.us, label %.lr.ph.split

_ZNKSt17basic_string_viewIcSt11char_traitsIcEE4findES2_m.exit.us: ; preds = %.lr.ph, %10
  %.02110.us = phi i64 [ %.122.us, %10 ], [ 0, %.lr.ph ]
  switch i64 %.02110.us, label %5 [
    i64 -1, label %.thread
    i64 0, label %7
  ]

5:                                                ; preds = %_ZNKSt17basic_string_viewIcSt11char_traitsIcEE4findES2_m.exit.us
  %gep.us = getelementptr i8, ptr %invariant.gep, i64 %.02110.us
  %6 = load i8, ptr %gep.us, align 1, !tbaa !26
  %.not26.us = icmp eq i8 %6, 58
  br i1 %.not26.us, label %7, label %10, !llvm.loop !747

7:                                                ; preds = %_ZNKSt17basic_string_viewIcSt11char_traitsIcEE4findES2_m.exit.us, %5
  %8 = getelementptr inbounds nuw i8, ptr %.8.val, i64 %.02110.us
  %9 = load i8, ptr %8, align 1, !tbaa !26
  %.not27.us = icmp eq i8 %9, 58
  br i1 %.not27.us, label %.thread, label %10, !llvm.loop !747

10:                                               ; preds = %7, %5
  %.122.us = add nuw i64 %.02110.us, 1
  %exitcond.not = icmp eq i64 %.122.us, %.0.val
  br i1 %exitcond.not, label %.thread, label %_ZNKSt17basic_string_viewIcSt11char_traitsIcEE4findES2_m.exit.us

.lr.ph.split:                                     ; preds = %.lr.ph, %35
  %.02110 = phi i64 [ %.122, %35 ], [ 0, %.lr.ph ]
  %11 = sub nuw i64 %.0.val, %.02110
  %.not2531.i.i = icmp ult i64 %11, %.0.val1
  br i1 %.not2531.i.i, label %.thread, label %.lr.ph.i.i

.lr.ph.i.i:                                       ; preds = %.lr.ph.split
  %12 = getelementptr inbounds nuw i8, ptr %.8.val, i64 %.02110
  %13 = load i8, ptr %.8.val3, align 1, !tbaa !26
  %14 = sext i8 %13 to i32
  br label %15

15:                                               ; preds = %23, %.lr.ph.i.i
  %.033.i.i = phi i64 [ %11, %.lr.ph.i.i ], [ %26, %23 ]
  %.02132.i.i = phi ptr [ %12, %.lr.ph.i.i ], [ %24, %23 ]
  %16 = sub nuw i64 %.033.i.i, %.0.val1
  %17 = add i64 %16, 1
  %18 = icmp eq i64 %17, 0
  br i1 %18, label %.thread, label %_ZNSt11char_traitsIcE4findEPKcmRS1_.exit.i.i

_ZNSt11char_traitsIcE4findEPKcmRS1_.exit.i.i:     ; preds = %15
  %19 = tail call ptr @memchr(ptr noundef %.02132.i.i, i32 noundef %14, i64 noundef %17) #37
  %.not26.i.i = icmp eq ptr %19, null
  br i1 %.not26.i.i, label %.thread, label %_ZNSt11char_traitsIcE7compareEPKcS2_m.exit.i.i

_ZNSt11char_traitsIcE7compareEPKcS2_m.exit.i.i:   ; preds = %_ZNSt11char_traitsIcE4findEPKcmRS1_.exit.i.i
  %bcmp.i.i = tail call i32 @bcmp(ptr nonnull %19, ptr nonnull %.8.val3, i64 %.0.val1)
  %20 = icmp eq i32 %bcmp.i.i, 0
  br i1 %20, label %_ZNKSt17basic_string_viewIcSt11char_traitsIcEE4findES2_m.exit, label %23

_ZNKSt17basic_string_viewIcSt11char_traitsIcEE4findES2_m.exit: ; preds = %_ZNSt11char_traitsIcE7compareEPKcS2_m.exit.i.i
  %21 = ptrtoint ptr %19 to i64
  %22 = sub i64 %21, %4
  switch i64 %22, label %27 [
    i64 -1, label %.thread
    i64 0, label %29
  ]

23:                                               ; preds = %_ZNSt11char_traitsIcE7compareEPKcS2_m.exit.i.i
  %24 = getelementptr inbounds nuw i8, ptr %19, i64 1
  %25 = ptrtoint ptr %24 to i64
  %26 = sub i64 %3, %25
  %.not25.i.i = icmp ult i64 %26, %.0.val1
  br i1 %.not25.i.i, label %.thread, label %15, !llvm.loop !748

27:                                               ; preds = %_ZNKSt17basic_string_viewIcSt11char_traitsIcEE4findES2_m.exit
  %gep = getelementptr i8, ptr %invariant.gep, i64 %22
  %28 = load i8, ptr %gep, align 1, !tbaa !26
  %.not26 = icmp eq i8 %28, 58
  br i1 %.not26, label %29, label %35, !llvm.loop !747

29:                                               ; preds = %_ZNKSt17basic_string_viewIcSt11char_traitsIcEE4findES2_m.exit, %27
  %30 = add i64 %22, %.0.val1
  %31 = icmp ult i64 %30, %.0.val
  br i1 %31, label %32, label %.thread

32:                                               ; preds = %29
  %33 = getelementptr inbounds nuw i8, ptr %.8.val, i64 %30
  %34 = load i8, ptr %33, align 1, !tbaa !26
  %.not27 = icmp eq i8 %34, 58
  br i1 %.not27, label %.thread, label %35, !llvm.loop !747

35:                                               ; preds = %32, %27
  %.122 = add nuw i64 %22, 1
  %36 = icmp ult i64 %.122, %.0.val
  br i1 %36, label %.lr.ph.split, label %.thread

.thread:                                          ; preds = %35, %_ZNKSt17basic_string_viewIcSt11char_traitsIcEE4findES2_m.exit, %32, %29, %.lr.ph.split, %15, %_ZNSt11char_traitsIcE4findEPKcmRS1_.exit.i.i, %23, %10, %_ZNKSt17basic_string_viewIcSt11char_traitsIcEE4findES2_m.exit.us, %7, %0
  %.3 = phi i64 [ -1, %0 ], [ %.02110.us, %7 ], [ %.02110.us, %_ZNKSt17basic_string_viewIcSt11char_traitsIcEE4findES2_m.exit.us ], [ -1, %10 ], [ -1, %23 ], [ -1, %_ZNSt11char_traitsIcE4findEPKcmRS1_.exit.i.i ], [ -1, %15 ], [ -1, %35 ], [ %22, %_ZNKSt17basic_string_viewIcSt11char_traitsIcEE4findES2_m.exit ], [ %22, %32 ], [ %22, %29 ], [ -1, %.lr.ph.split ]
  ret i64 %.3
}